(dp1
S'output'
p2
S"<type 'exceptions.IOError'> [Errno 36] File name too long: '/home/harshil/web2py/applications/SocialNetwork/databases/../uploads/profilepic.image.8284889d364aca8f.6e6f5f7461626c652e50726f66696c655069632e383330363161356265313834623463652e333133313330333033393339333533313566333433313334333433353334333633343335333333383331333633313331356633333335333833333335333433343335333433363330333433313331333233353333333433323566366532653661373036372e6a7067.jpg'"
p3
sS'layer'
p4
S'/home/harshil/web2py/applications/SocialNetwork/controllers/default.py'
p5
sS'code'
p6
S'# -*- coding: utf-8 -*-\n# this file is released under public domain and you can use without limitations\n\n#########################################################################\n## This is a sample controller\n## - index is the default action of any application\n## - user is required for authentication and authorization\n## - download is for downloading files uploaded in the db (does streaming)\n## - api is an example of Hypermedia API support and access control\n#########################################################################\n\ndef index():\n    """\n    example action using the internationalization operator T and flash\n    rendered by views/default/index.html or views/generic.html\n\n    if you need a simple wiki simply replace the two lines below with:\n    return auth.wiki()\n    """\n    auth.settings.login_next=URL(\'home\')\n    return dict(form=auth())\n\n\n@auth.requires_login()\ndef acceptreq():\n    id2 = request.args[0]\n    id1 = request.args[1]\n    db(db.freq.friend_id2==id2).delete()\n    db.friend.insert(friend_id1=id1,friend_id2=id2)\n    redirect( request.env.http_web2py_component_location,client_side=True)\n\n@auth.requires_login()\ndef sendreq():\n    id1 = request.args[0]\n    id2 = request.args[1]\n\n    flag=db( ( db.freq.friend_id1==id1 and db.freq.friend_id2==id2) or ( db.freq.friend_id1==id2 and db.freq.friend_id2==id1)  ).count()\n    if flag==0:\n        db(db.freq.friend_id1==id1 and db.freq.friend_id2==id2).delete()\n        db.freq.insert(friend_id1=id1,friend_id2=id2)\n    redirect( request.env.http_web2py_component_location,client_side=True)\n\n@auth.requires_login()\ndef delfriend():\n    id1 = request.args[0]\n    id2 = request.args[1]\n    db(db.friend.friend_id1==id1 and db.friend.friend_id2==id2).delete()\n    db(db.friend.friend_id1==id2 and db.friend.friend_id2==id1).delete()\n    redirect( request.env.http_web2py_component_location,client_side=True)\n\n@auth.requires_login()\ndef home():\n \n    flass=-1\n    logname = auth.user.first_name\n    people={}\n    logid = int(auth.user.id)   \n    k=-1\n    l=logid\n    if len(request.args)==0 or len(request.args)>1:\n        redirect(URL(\'home\',args=(logid)))\n    \n    elif len(request.args) == 1:\n        name = request.args[0]\n        for row in db().select(db.auth_user.ALL):\n            people[int(row.id)]=row.first_name+" "+row.last_name\n            if int(row.id) == int(name):\n                l= row.id\n                k = row.first_name\n\n    m=-1\n    if(k==logname):\n        m=1  \n\n    flist=[]\n    frlist=[]\n\n    for row in db().select(db.freq.ALL):\n        if int(row.friend_id1) == logid:\n            if l == int(row.friend_id2):\n                flass=0\n            flist.append(int(row.friend_id2))\n\n    for row in db().select(db.friend.ALL):\n        id1 = int(row.friend_id1)\n        id2 = int(row.friend_id2)\n\n        if id1 == logid:\n            if id2 == l:\n                flass=1\n            frlist.append(id2)\n        elif id2 == logid:\n            if id1 == l:\n                flass=1\n            frlist.append(id1)\n\n    import os\n    form = SQLFORM.factory(Field(\'description\',\'string\',notnull=True),\n            Field(\'image\', \'upload\', requires=IS_EMPTY_OR(IS_IMAGE()),uploadfolder=os.path.join(request.folder,\'uploads\') ) ,\n\n            Field(\'music\', \'upload\', requires=IS_EMPTY_OR(IS_UPLOAD_FILENAME(extension=(\'mp.\'))),uploadfolder=os.path.join(request.folder,\'uploads\') ) \n            )\n    if form.process(formname=\'form\').accepted:\n        if form.vars.music!=\'\':\n            stream1 = open(request.folder+\'uploads/\'+form.vars.music, \'rb\') \n            if form.vars.image!=\'\':\n                stream = open(request.folder+\'uploads/\'+form.vars.image, \'rb\')\n                db.post.insert(person_id=logid,description=form.vars.description,image=stream,music=stream1)\n            else:\n                db.post.insert(person_id=logid,description=form.vars.description,music=stream1)\n        else:\n            if form.vars.image!=\'\':\n                stream = open(request.folder+\'uploads/\'+form.vars.image, \'rb\')\n                db.post.insert(person_id=logid,description=form.vars.description,image=stream)\n            else:\n                db.post.insert(person_id=logid,description=form.vars.description)\n\n    post=[]\n    for row in db().select(db.post.ALL, orderby=~db.post.id):\n        postid = row.id\n        pid=row.person_id\n        des=row.description\n        img=row.image\n        mus=row.music\n        if mus == \'\':\n            mus=-1\n        if img == \'\':\n            img=-1\n        if m==1:\n            if pid in frlist or pid == logid:\n                post.append((pid,des,img,postid,mus))\n        else:\n            post.append((pid,des,img,postid,mus))\n\n    search = SQLFORM.factory(Field(\'Search\',\'string\'))\n    if search.process(formname=\'search\').accepted:\n        name = search.vars.Search\n        resultn=[]\n        resulti=[]\n        for row in db(db.auth_user.first_name.contains(name,case_sensitive=False)).select():\n            resultn.append(row.first_name)\n            resulti.append(row.id)\n        redirect(URL(\'search\',args=(resultn,resulti)))\n    \n    picform = SQLFORM.factory(\n            Field(\'ProfilePic\', \'upload\', requires=IS_IMAGE(),uploadfolder=os.path.join(request.folder,\'uploads\') ) \n            )\n    if picform.process(formname=\'picform\').accepted:\n        db(db.profilepic.id==logid).delete()\n        stream2 = open(request.folder+\'uploads/\'+picform.vars.ProfilePic, \'rb\')\n\n        db.profilepic.insert(person_id=logid, image=stream2)\n    \n    return dict(picform=picform,search=search,logid=logid,people=people,flass=flass,l=l,m=m,data=A(auth.user.first_name, _href="default/home" ), name=k , flist=flist , frlist=frlist,form = form, post=post)\n\n@auth.requires_login()\ndef post():\n    rows=db(db.post.id==request.args[0]).select()\n    if len(rows)!=1:\n        return dict(error=1)\n    row=rows[0]\n    postid = row.id\n    pid=row.person_id\n    des=row.description\n    img=row.image\n    mus=row.music\n    if img==\'\':\n        img=-1\n    if mus==\'\':\n        mus=-1\n    post=(pid,des,img,postid,mus)\n\n    data=[]\n    \n    for comments in db(db.postcomment.post_id == postid).select():\n        persondetail = db(db.auth_user.id == comments.person_id).select()[0]\n        data.append((persondetail,comments.comments))\n\n    commentform = SQLFORM.factory(Field(\'Comment\',\'string\'))\n    if commentform.process(formname=\'commentform\').accepted:\n        db.postcomment.insert(post_id=postid,person_id=auth.user.id,comments=commentform.vars.Comment)\n        redirect( request.env.http_web2py_component_location,client_side=True)\n\n    like = []\n\n    for likes in db(db.postlikes.post_id == postid).select():\n        persondetail = db(db.auth_user.id == likes.person_id).select()[0]\n        like.append(persondetail)\n\n    name = db(db.auth_user.id == pid).select()[0].first_name    \n\n    return dict(error=0,post=post,data=data,name=name,form=commentform,like=like)\n\n@auth.requires_login()\ndef search():\n    people= request.args[0].split(\'_\')\n    str_list = filter(None, people) \n    ids = request.args[1].split(\'_\')\n    str_lists = filter(None, ids) \n    return dict(people=str_list,ids=str_lists)\n\n@auth.requires_login()\ndef likeimage():\n    db.postlikes.insert(post_id=request.args[0], person_id=auth.user.id)\n    redirect( request.env.http_web2py_component_location,client_side=True)\n\n\n@auth.requires_login()\ndef unlikeimage():\n    db(db.postlikes.post_id == request.args[0] and db.postlikes.person_id == auth.user.id).delete()\n    redirect( request.env.http_web2py_component_location,client_side=True)\n   \n\ndef user():\n    """\n    exposes:\n    http://..../[app]/default/user/login\n    http://..../[app]/default/user/logout\n    http://..../[app]/default/user/register\n    http://..../[app]/default/user/profile\n    http://..../[app]/default/user/retrieve_password\n    http://..../[app]/default/user/change_password\n    http://..../[app]/default/user/manage_users (requires membership in\n    use @auth.requires_login()\n        @auth.requires_membership(\'group name\')\n        @auth.requires_permission(\'read\',\'table name\',record_id)\n    to decorate functions that need access control\n    """\n    return dict(form=auth())\n\n\n@cache.action()\ndef download():\n    """\n    allows downloading of uploaded files\n    http://..../[app]/default/download/[filename]\n    """\n    return response.download(request, db)\n\n\ndef call():\n    """\n    exposes services. for example:\n    http://..../[app]/default/call/jsonrpc\n    decorate with @services.jsonrpc the functions to expose\n    supports xml, json, xmlrpc, jsonrpc, amfrpc, rss, csv\n    """\n    return service()\n\n\n@auth.requires_login() \ndef api():\n    """\n    this is example of API with access control\n    WEB2PY provides Hypermedia API (Collection+JSON) Experimental\n    """\n    from gluon.contrib.hypermedia import Collection\n    rules = {\n        \'<tablename>\': {\'GET\':{},\'POST\':{},\'PUT\':{},\'DELETE\':{}},\n        }\n    return Collection(db).process(request,response,rules)\n\nresponse._vars=response._caller(home)\n'
p7
sS'snapshot'
p8
(dp9
S'exception'
p10
(dp11
S'__getslice__'
p12
S"<method-wrapper '__getslice__' of exceptions.IOError object>"
p13
sS'__str__'
p14
S"<method-wrapper '__str__' of exceptions.IOError object>"
p15
sS'__reduce__'
p16
S'<built-in method __reduce__ of exceptions.IOError object>'
p17
sS'__dict__'
p18
S'{}'
p19
sS'__sizeof__'
p20
S'<built-in method __sizeof__ of exceptions.IOError object>'
p21
sS'__init__'
p22
S"<method-wrapper '__init__' of exceptions.IOError object>"
p23
sS'__setattr__'
p24
S"<method-wrapper '__setattr__' of exceptions.IOError object>"
p25
sS'__reduce_ex__'
p26
S'<built-in method __reduce_ex__ of exceptions.IOError object>'
p27
sS'__new__'
p28
S'<built-in method __new__ of type object>'
p29
sS'errno'
p30
S'36'
p31
sS'__format__'
p32
S'<built-in method __format__ of exceptions.IOError object>'
p33
sS'__class__'
p34
S"<type 'exceptions.IOError'>"
p35
sS'filename'
p36
S"'/home/harshil/web2py/applications/SocialNetwork/...53333333433323566366532653661373036372e6a7067.jpg'"
p37
sS'__doc__'
p38
S"'I/O operation failed.'"
p39
sS'__getitem__'
p40
S"<method-wrapper '__getitem__' of exceptions.IOError object>"
p41
sS'__setstate__'
p42
S'<built-in method __setstate__ of exceptions.IOError object>'
p43
sS'__getattribute__'
p44
S"<method-wrapper '__getattribute__' of exceptions.IOError object>"
p45
sS'args'
p46
S"(36, 'File name too long')"
p47
sS'__subclasshook__'
p48
S'<built-in method __subclasshook__ of type object>'
p49
sS'__unicode__'
p50
S'<built-in method __unicode__ of exceptions.IOError object>'
p51
sS'strerror'
p52
S"'File name too long'"
p53
sS'__delattr__'
p54
S"<method-wrapper '__delattr__' of exceptions.IOError object>"
p55
sS'__repr__'
p56
S"<method-wrapper '__repr__' of exceptions.IOError object>"
p57
sS'__hash__'
p58
S"<method-wrapper '__hash__' of exceptions.IOError object>"
p59
ssS'evalue'
p60
S"[Errno 36] File name too long: '/home/harshil/web2py/applications/SocialNetwork/databases/../uploads/profilepic.image.8284889d364aca8f.6e6f5f7461626c652e50726f66696c655069632e383330363161356265313834623463652e333133313330333033393339333533313566333433313334333433353334333633343335333333383331333633313331356633333335333833333335333433343335333433363330333433313331333233353333333433323566366532653661373036372e6a7067.jpg'"
p61
sS'request'
p62
cgluon.html
XML_unpickle
p63
(S'swc\x00\x00<div><table><tr><td style="font-weight:bold;vertical-align:top;">ajax</td><td style="vertical-align:top;">:</td><td><div>False</div></td></tr><tr><td style="font-weight:bold;vertical-align:top;">application</td><td style="vertical-align:top;">:</td><td><div>SocialNetwork</div></td></tr><tr><td style="font-weight:bold;vertical-align:top;">args</td><td style="vertical-align:top;">:</td><td><div><table><tr><td><div>1</div></td></tr></table></div></td></tr><tr><td style="font-weight:bold;vertical-align:top;">cid</td><td style="vertical-align:top;">:</td><td><div>None</div></td></tr><tr><td style="font-weight:bold;vertical-align:top;">client</td><td style="vertical-align:top;">:</td><td><div>127.0.0.1</div></td></tr><tr><td style="font-weight:bold;vertical-align:top;">controller</td><td style="vertical-align:top;">:</td><td><div>default</div></td></tr><tr><td style="font-weight:bold;vertical-align:top;">cookies</td><td style="vertical-align:top;">:</td><td><div><table><tr><td style="font-weight:bold;vertical-align:top;">session_id_admin</td><td style="vertical-align:top;">:</td><td><div>127.0.0.1-86ba18c9-fcff-4c0a-aebf-b7c381c50673<table><tr><td style="font-weight:bold;vertical-align:top;">comment</td><td style="vertical-align:top;">:</td><td><div></div></td></tr><tr><td style="font-weight:bold;vertical-align:top;">domain</td><td style="vertical-align:top;">:</td><td><div></div></td></tr><tr><td style="font-weight:bold;vertical-align:top;">expires</td><td style="vertical-align:top;">:</td><td><div></div></td></tr><tr><td style="font-weight:bold;vertical-align:top;">httponly</td><td style="vertical-align:top;">:</td><td><div></div></td></tr><tr><td style="font-weight:bold;vertical-align:top;">max-age</td><td style="vertical-align:top;">:</td><td><div></div></td></tr><tr><td style="font-weight:bold;vertical-align:top;">path</td><td style="vertical-align:top;">:</td><td><div></div></td></tr><tr><td style="font-weight:bold;vertical-align:top;">secure</td><td style="vertical-align:top;">:</td><td><div></div></td></tr><tr><td style="font-weight:bold;vertical-align:top;">version</td><td style="vertical-align:top;">:</td><td><div></div></td></tr></table></div></td></tr><tr><td style="font-weight:bold;vertical-align:top;">session_id_socialnetwork</td><td style="vertical-align:top;">:</td><td><div>127.0.0.1-986d7e9c-0c75-4751-85fa-21c89cd42f96<table><tr><td style="font-weight:bold;vertical-align:top;">comment</td><td style="vertical-align:top;">:</td><td><div></div></td></tr><tr><td style="font-weight:bold;vertical-align:top;">domain</td><td style="vertical-align:top;">:</td><td><div></div></td></tr><tr><td style="font-weight:bold;vertical-align:top;">expires</td><td style="vertical-align:top;">:</td><td><div></div></td></tr><tr><td style="font-weight:bold;vertical-align:top;">httponly</td><td style="vertical-align:top;">:</td><td><div></div></td></tr><tr><td style="font-weight:bold;vertical-align:top;">max-age</td><td style="vertical-align:top;">:</td><td><div></div></td></tr><tr><td style="font-weight:bold;vertical-align:top;">path</td><td style="vertical-align:top;">:</td><td><div></div></td></tr><tr><td style="font-weight:bold;vertical-align:top;">secure</td><td style="vertical-align:top;">:</td><td><div></div></td></tr><tr><td style="font-weight:bold;vertical-align:top;">version</td><td style="vertical-align:top;">:</td><td><div></div></td></tr></table></div></td></tr><tr><td style="font-weight:bold;vertical-align:top;">session_id_welcome</td><td style="vertical-align:top;">:</td><td><div>127.0.0.1-9336ed03-6658-4185-9d6b-5c59761e6cc1<table><tr><td style="font-weight:bold;vertical-align:top;">comment</td><td style="vertical-align:top;">:</td><td><div></div></td></tr><tr><td style="font-weight:bold;vertical-align:top;">domain</td><td style="vertical-align:top;">:</td><td><div></div></td></tr><tr><td style="font-weight:bold;vertical-align:top;">expires</td><td style="vertical-align:top;">:</td><td><div></div></td></tr><tr><td style="font-weight:bold;vertical-align:top;">httponly</td><td style="vertical-align:top;">:</td><td><div></div></td></tr><tr><td style="font-weight:bold;vertical-align:top;">max-age</td><td style="vertical-align:top;">:</td><td><div></div></td></tr><tr><td style="font-weight:bold;vertical-align:top;">path</td><td style="vertical-align:top;">:</td><td><div></div></td></tr><tr><td style="font-weight:bold;vertical-align:top;">secure</td><td style="vertical-align:top;">:</td><td><div></div></td></tr><tr><td style="font-weight:bold;vertical-align:top;">version</td><td style="vertical-align:top;">:</td><td><div></div></td></tr></table></div></td></tr></table></div></td></tr><tr><td style="font-weight:bold;vertical-align:top;">env</td><td style="vertical-align:top;">:</td><td><div><table><tr><td style="font-weight:bold;vertical-align:top;">CONTENT_LENGTH</td><td style="vertical-align:top;">:</td><td><div>85819</div></td></tr><tr><td style="font-weight:bold;vertical-align:top;">CONTENT_TYPE</td><td style="vertical-align:top;">:</td><td><div>multipart/form-data; boundary=----WebKitFormBoundaryWKIhE6YijuVBJ9WJ</div></td></tr><tr><td style="font-weight:bold;vertical-align:top;">HTTP_ACCEPT</td><td style="vertical-align:top;">:</td><td><div>text/html,application/xhtml+xml,application/xml;q=0.9,image/webp,*/*;q=0.8</div></td></tr><tr><td style="font-weight:bold;vertical-align:top;">HTTP_ACCEPT_ENCODING</td><td style="vertical-align:top;">:</td><td><div>gzip, deflate</div></td></tr><tr><td style="font-weight:bold;vertical-align:top;">HTTP_ACCEPT_LANGUAGE</td><td style="vertical-align:top;">:</td><td><div>en-US,en;q=0.8</div></td></tr><tr><td style="font-weight:bold;vertical-align:top;">HTTP_CACHE_CONTROL</td><td style="vertical-align:top;">:</td><td><div>max-age=0</div></td></tr><tr><td style="font-weight:bold;vertical-align:top;">HTTP_CONNECTION</td><td style="vertical-align:top;">:</td><td><div>keep-alive</div></td></tr><tr><td style="font-weight:bold;vertical-align:top;">HTTP_CONTENT_LENGTH</td><td style="vertical-align:top;">:</td><td><div>85819</div></td></tr><tr><td style="font-weight:bold;vertical-align:top;">HTTP_CONTENT_TYPE</td><td style="vertical-align:top;">:</td><td><div>multipart/form-data; boundary=----WebKitFormBoundaryWKIhE6YijuVBJ9WJ</div></td></tr><tr><td style="font-weight:bold;vertical-align:top;">HTTP_COOKIE</td><td style="vertical-align:top;">:</td><td><div>session_id_welcome=127.0.0.1-9336ed03-6658-4185-9d6b-5c59761e6cc1; session_id_admin=127.0.0.1-86ba18c9-fcff-4c0a-aebf-b7c381c50673; session_id_socialnetwork=127.0.0.1-986d7e9c-0c75-4751-85fa-21c89cd42f96</div></td></tr><tr><td style="font-weight:bold;vertical-align:top;">HTTP_HOST</td><td style="vertical-align:top;">:</td><td><div>127.0.0.1:8000</div></td></tr><tr><td style="font-weight:bold;vertical-align:top;">HTTP_ORIGIN</td><td style="vertical-align:top;">:</td><td><div>http://127.0.0.1:8000</div></td></tr><tr><td style="font-weight:bold;vertical-align:top;">HTTP_REFERER</td><td style="vertical-align:top;">:</td><td><div>http://127.0.0.1:8000/SocialNetwork/default/home/1</div></td></tr><tr><td style="font-weight:bold;vertical-align:top;">HTTP_USER_AGENT</td><td style="vertical-align:top;">:</td><td><div>Mozilla/5.0 (X11; Linux x86_64) AppleWebKit/537.36 (KHTML, like Gecko) Chrome/41.0.2272.76 Safari/537.36</div></td></tr><tr><td style="font-weight:bold;vertical-align:top;">PATH_INFO</td><td style="vertical-align:top;">:</td><td><div>/SocialNetwork/default/home/1</div></td></tr><tr><td style="font-weight:bold;vertical-align:top;">QUERY_STRING</td><td style="vertical-align:top;">:</td><td><div></div></td></tr><tr><td style="font-weight:bold;vertical-align:top;">REMOTE_ADDR</td><td style="vertical-align:top;">:</td><td><div>127.0.0.1</div></td></tr><tr><td style="font-weight:bold;vertical-align:top;">REMOTE_PORT</td><td style="vertical-align:top;">:</td><td><div>57221</div></td></tr><tr><td style="font-weight:bold;vertical-align:top;">REQUEST_METHOD</td><td style="vertical-align:top;">:</td><td><div>POST</div></td></tr><tr><td style="font-weight:bold;vertical-align:top;">SCRIPT_NAME</td><td style="vertical-align:top;">:</td><td><div></div></td></tr><tr><td style="font-weight:bold;vertical-align:top;">SERVER_NAME</td><td style="vertical-align:top;">:</td><td><div>harshil-Lenovo-Z50-70</div></td></tr><tr><td style="font-weight:bold;vertical-align:top;">SERVER_PORT</td><td style="vertical-align:top;">:</td><td><div>8000</div></td></tr><tr><td style="font-weight:bold;vertical-align:top;">SERVER_PROTOCOL</td><td style="vertical-align:top;">:</td><td><div>HTTP/1.1</div></td></tr><tr><td style="font-weight:bold;vertical-align:top;">SERVER_SOFTWARE</td><td style="vertical-align:top;">:</td><td><div>Rocket 1.2.6</div></td></tr><tr><td style="font-weight:bold;vertical-align:top;">app_folders</td><td style="vertical-align:top;">:</td><td><div>set([&#x27;/home/harshil/web2py/applications/admin/&#x27;, &#x27;/home/harshil/web2py/applications/welcome/&#x27;, &#x27;/home/harshil/web2py/applications/SocialNetwork/&#x27;])</div></td></tr><tr><td style="font-weight:bold;vertical-align:top;">applications_parent</td><td style="vertical-align:top;">:</td><td><div>/home/harshil/web2py</div></td></tr><tr><td style="font-weight:bold;vertical-align:top;">cmd_args</td><td style="vertical-align:top;">:</td><td><div><table></table></div></td></tr><tr><td style="font-weight:bold;vertical-align:top;">cmd_options</td><td style="vertical-align:top;">:</td><td><div>&lt;Values at 0x7f6c2de52710: {&#x27;verbose&#x27;: False, &#x27;ip&#x27;: &#x27;127.0.0.1&#x27;, &#x27;debuglevel&#x27;: 30, &#x27;with_scheduler&#x27;: False, &#x27;ips&#x27;: [&#x27;127.0.1.1&#x27;], &#x27;shutdown_timeout&#x27;: 5, &#x27;taskbar&#x27;: False, &#x27;with_coverage&#x27;: False, &#x27;scheduler_groups&#x27;: None, &#x27;port&#x27;: 8000, &#x27;maxthreads&#x27;: None, &#x27;softcron&#x27;: False, &#x27;server_name&#x27;: &#x27;harshil-Lenovo-Z50-70&#x27;, &#x27;bpython&#x27;: False, &#x27;nogui&#x27;: False, &#x27;pid_filename&#x27;: &#x27;httpserver.pid&#x27;, &#x27;extcron&#x27;: False, &#x27;runcron&#x27;: False, &#x27;run_system_tests&#x27;: False, &#x27;test&#x27;: None, &#x27;folder&#x27;: &#x27;/home/harshil/web2py&#x27;, &#x27;config&#x27;: &#x27;&#x27;, &#x27;minthreads&#x27;: None, &#x27;shell&#x27;: None, &#x27;run&#x27;: &#x27;&#x27;, &#x27;log_filename&#x27;: &#x27;httpserver.log&#x27;, &#x27;profiler_dir&#x27;: None, &#x27;args&#x27;: [&#x27;&#x27;], &#x27;socket_timeout&#x27;: 5, &#x27;ssl_ca_certificate&#x27;: None, &#x27;scheduler&#x27;: None, &#x27;interfaces&#x27;: None, &#x27;ssl_private_key&#x27;: &#x27;&#x27;, &#x27;gae&#x27;: None, &#x27;password&#x27;: &#x27;&lt;ask&gt;&#x27;, &#x27;request_queue_size&#x27;: 5, &#x27;ssl_certificate&#x27;: &#x27;&#x27;, &#x27;cronjob&#x27;: False, &#x27;numthreads&#x27;: None, &#x27;quiet&#x27;: False, &#x27;import_models&#x27;: False, &#x27;timeout&#x27;: 10, &#x27;plain&#x27;: False, &#x27;nobanner&#x27;: False}&gt;</div></td></tr><tr><td style="font-weight:bold;vertical-align:top;">content_length</td><td style="vertical-align:top;">:</td><td><div>85819</div></td></tr><tr><td style="font-weight:bold;vertical-align:top;">content_type</td><td style="vertical-align:top;">:</td><td><div>multipart/form-data; boundary=----WebKitFormBoundaryWKIhE6YijuVBJ9WJ</div></td></tr><tr><td style="font-weight:bold;vertical-align:top;">db_sessions</td><td style="vertical-align:top;">:</td><td><div>set([])</div></td></tr><tr><td style="font-weight:bold;vertical-align:top;">debugging</td><td style="vertical-align:top;">:</td><td><div>False</div></td></tr><tr><td style="font-weight:bold;vertical-align:top;">gluon_parent</td><td style="vertical-align:top;">:</td><td><div>/home/harshil/web2py</div></td></tr><tr><td style="font-weight:bold;vertical-align:top;">http_accept</td><td style="vertical-align:top;">:</td><td><div>text/html,application/xhtml+xml,application/xml;q=0.9,image/webp,*/*;q=0.8</div></td></tr><tr><td style="font-weight:bold;vertical-align:top;">http_accept_encoding</td><td style="vertical-align:top;">:</td><td><div>gzip, deflate</div></td></tr><tr><td style="font-weight:bold;vertical-align:top;">http_accept_language</td><td style="vertical-align:top;">:</td><td><div>en-US,en;q=0.8</div></td></tr><tr><td style="font-weight:bold;vertical-align:top;">http_cache_control</td><td style="vertical-align:top;">:</td><td><div>max-age=0</div></td></tr><tr><td style="font-weight:bold;vertical-align:top;">http_connection</td><td style="vertical-align:top;">:</td><td><div>keep-alive</div></td></tr><tr><td style="font-weight:bold;vertical-align:top;">http_content_length</td><td style="vertical-align:top;">:</td><td><div>85819</div></td></tr><tr><td style="font-weight:bold;vertical-align:top;">http_content_type</td><td style="vertical-align:top;">:</td><td><div>multipart/form-data; boundary=----WebKitFormBoundaryWKIhE6YijuVBJ9WJ</div></td></tr><tr><td style="font-weight:bold;vertical-align:top;">http_cookie</td><td style="vertical-align:top;">:</td><td><div>session_id_welcome=127.0.0.1-9336ed03-6658-4185-9d6b-5c59761e6cc1; session_id_admin=127.0.0.1-86ba18c9-fcff-4c0a-aebf-b7c381c50673; session_id_socialnetwork=127.0.0.1-986d7e9c-0c75-4751-85fa-21c89cd42f96</div></td></tr><tr><td style="font-weight:bold;vertical-align:top;">http_host</td><td style="vertical-align:top;">:</td><td><div>127.0.0.1:8000</div></td></tr><tr><td style="font-weight:bold;vertical-align:top;">http_origin</td><td style="vertical-align:top;">:</td><td><div>http://127.0.0.1:8000</div></td></tr><tr><td style="font-weight:bold;vertical-align:top;">http_referer</td><td style="vertical-align:top;">:</td><td><div>http://127.0.0.1:8000/SocialNetwork/default/home/1</div></td></tr><tr><td style="font-weight:bold;vertical-align:top;">http_user_agent</td><td style="vertical-align:top;">:</td><td><div>Mozilla/5.0 (X11; Linux x86_64) AppleWebKit/537.36 (KHTML, like Gecko) Chrome/41.0.2272.76 Safari/537.36</div></td></tr><tr><td style="font-weight:bold;vertical-align:top;">is_jython</td><td style="vertical-align:top;">:</td><td><div>False</div></td></tr><tr><td style="font-weight:bold;vertical-align:top;">is_pypy</td><td style="vertical-align:top;">:</td><td><div>False</div></td></tr><tr><td style="font-weight:bold;vertical-align:top;">is_source</td><td style="vertical-align:top;">:</td><td><div>True</div></td></tr><tr><td style="font-weight:bold;vertical-align:top;">local_hosts</td><td style="vertical-align:top;">:</td><td><div><table><tr><td><div>::1</div></td></tr><tr><td><div>127.0.1.1</div></td></tr><tr><td><div>harshil-Lenovo-Z50-70</div></td></tr><tr><td><div>::ffff:127.0.0.1</div></td></tr><tr><td><div>127.0.0.1</div></td></tr></table></div></td></tr><tr><td style="font-weight:bold;vertical-align:top;">path_info</td><td style="vertical-align:top;">:</td><td><div>/SocialNetwork/default/home/1</div></td></tr><tr><td style="font-weight:bold;vertical-align:top;">query_string</td><td style="vertical-align:top;">:</td><td><div></div></td></tr><tr><td style="font-weight:bold;vertical-align:top;">remote_addr</td><td style="vertical-align:top;">:</td><td><div>127.0.0.1</div></td></tr><tr><td style="font-weight:bold;vertical-align:top;">remote_port</td><td style="vertical-align:top;">:</td><td><div>57221</div></td></tr><tr><td style="font-weight:bold;vertical-align:top;">request_method</td><td style="vertical-align:top;">:</td><td><div>POST</div></td></tr><tr><td style="font-weight:bold;vertical-align:top;">request_uri</td><td style="vertical-align:top;">:</td><td><div>/SocialNetwork/default/home/1</div></td></tr><tr><td style="font-weight:bold;vertical-align:top;">script_name</td><td style="vertical-align:top;">:</td><td><div></div></td></tr><tr><td style="font-weight:bold;vertical-align:top;">server_name</td><td style="vertical-align:top;">:</td><td><div>harshil-Lenovo-Z50-70</div></td></tr><tr><td style="font-weight:bold;vertical-align:top;">server_port</td><td style="vertical-align:top;">:</td><td><div>8000</div></td></tr><tr><td style="font-weight:bold;vertical-align:top;">server_protocol</td><td style="vertical-align:top;">:</td><td><div>HTTP/1.1</div></td></tr><tr><td style="font-weight:bold;vertical-align:top;">server_software</td><td style="vertical-align:top;">:</td><td><div>Rocket 1.2.6</div></td></tr><tr><td style="font-weight:bold;vertical-align:top;">web2py_path</td><td style="vertical-align:top;">:</td><td><div>/home/harshil/web2py</div></td></tr><tr><td style="font-weight:bold;vertical-align:top;">web2py_version</td><td style="vertical-align:top;">:</td><td><div>2.9.11-stable+timestamp.2014.09.15.23.35.11</div></td></tr><tr><td style="font-weight:bold;vertical-align:top;">wsgi.errors</td><td style="vertical-align:top;">:</td><td><div>&lt;open file &#x27;&lt;stderr&gt;&#x27;, mode &#x27;w&#x27; at 0x7f6c34f451e0&gt;</div></td></tr><tr><td style="font-weight:bold;vertical-align:top;">wsgi.file_wrapper</td><td style="vertical-align:top;">:</td><td><div>&lt;class wsgiref.util.FileWrapper at 0x7f6c2deceb48&gt;</div></td></tr><tr><td style="font-weight:bold;vertical-align:top;">wsgi.input</td><td style="vertical-align:top;">:</td><td><div>&lt;socket._fileobject object at 0x7f6c244eedd0&gt;</div></td></tr><tr><td style="font-weight:bold;vertical-align:top;">wsgi.multiprocess</td><td style="vertical-align:top;">:</td><td><div>False</div></td></tr><tr><td style="font-weight:bold;vertical-align:top;">wsgi.multithread</td><td style="vertical-align:top;">:</td><td><div>True</div></td></tr><tr><td style="font-weight:bold;vertical-align:top;">wsgi.run_once</td><td style="vertical-align:top;">:</td><td><div>False</div></td></tr><tr><td style="font-weight:bold;vertical-align:top;">wsgi.url_scheme</td><td style="vertical-align:top;">:</td><td><div>http</div></td></tr><tr><td style="font-weight:bold;vertical-align:top;">wsgi.version</td><td style="vertical-align:top;">:</td><td><div><table><tr><td><div>1</div></td></tr><tr><td><div>0</div></td></tr></table></div></td></tr><tr><td style="font-weight:bold;vertical-align:top;">wsgi_errors</td><td style="vertical-align:top;">:</td><td><div>&lt;open file &#x27;&lt;stderr&gt;&#x27;, mode &#x27;w&#x27; at 0x7f6c34f451e0&gt;</div></td></tr><tr><td style="font-weight:bold;vertical-align:top;">wsgi_file_wrapper</td><td style="vertical-align:top;">:</td><td><div>&lt;class wsgiref.util.FileWrapper at 0x7f6c2deceb48&gt;</div></td></tr><tr><td style="font-weight:bold;vertical-align:top;">wsgi_input</td><td style="vertical-align:top;">:</td><td><div>&lt;socket._fileobject object at 0x7f6c244eedd0&gt;</div></td></tr><tr><td style="font-weight:bold;vertical-align:top;">wsgi_multiprocess</td><td style="vertical-align:top;">:</td><td><div>False</div></td></tr><tr><td style="font-weight:bold;vertical-align:top;">wsgi_multithread</td><td style="vertical-align:top;">:</td><td><div>True</div></td></tr><tr><td style="font-weight:bold;vertical-align:top;">wsgi_run_once</td><td style="vertical-align:top;">:</td><td><div>False</div></td></tr><tr><td style="font-weight:bold;vertical-align:top;">wsgi_url_scheme</td><td style="vertical-align:top;">:</td><td><div>http</div></td></tr><tr><td style="font-weight:bold;vertical-align:top;">wsgi_version</td><td style="vertical-align:top;">:</td><td><div><table><tr><td><div>1</div></td></tr><tr><td><div>0</div></td></tr></table></div></td></tr></table></div></td></tr><tr><td style="font-weight:bold;vertical-align:top;">extension</td><td style="vertical-align:top;">:</td><td><div>html</div></td></tr><tr><td style="font-weight:bold;vertical-align:top;">folder</td><td style="vertical-align:top;">:</td><td><div>/home/harshil/web2py/applications/SocialNetwork/</div></td></tr><tr><td style="font-weight:bold;vertical-align:top;">function</td><td style="vertical-align:top;">:</td><td><div>home</div></td></tr><tr><td style="font-weight:bold;vertical-align:top;">global_settings</td><td style="vertical-align:top;">:</td><td><div><table><tr><td style="font-weight:bold;vertical-align:top;">app_folders</td><td style="vertical-align:top;">:</td><td><div>set([&#x27;/home/harshil/web2py/applications/admin/&#x27;, &#x27;/home/harshil/web2py/applications/welcome/&#x27;, &#x27;/home/harshil/web2py/applications/SocialNetwork/&#x27;])</div></td></tr><tr><td style="font-weight:bold;vertical-align:top;">applications_parent</td><td style="vertical-align:top;">:</td><td><div>/home/harshil/web2py</div></td></tr><tr><td style="font-weight:bold;vertical-align:top;">cmd_args</td><td style="vertical-align:top;">:</td><td><div><table></table></div></td></tr><tr><td style="font-weight:bold;vertical-align:top;">cmd_options</td><td style="vertical-align:top;">:</td><td><div>&lt;Values at 0x7f6c2de52710: {&#x27;verbose&#x27;: False, &#x27;ip&#x27;: &#x27;127.0.0.1&#x27;, &#x27;debuglevel&#x27;: 30, &#x27;with_scheduler&#x27;: False, &#x27;ips&#x27;: [&#x27;127.0.1.1&#x27;], &#x27;shutdown_timeout&#x27;: 5, &#x27;taskbar&#x27;: False, &#x27;with_coverage&#x27;: False, &#x27;scheduler_groups&#x27;: None, &#x27;port&#x27;: 8000, &#x27;maxthreads&#x27;: None, &#x27;softcron&#x27;: False, &#x27;server_name&#x27;: &#x27;harshil-Lenovo-Z50-70&#x27;, &#x27;bpython&#x27;: False, &#x27;nogui&#x27;: False, &#x27;pid_filename&#x27;: &#x27;httpserver.pid&#x27;, &#x27;extcron&#x27;: False, &#x27;runcron&#x27;: False, &#x27;run_system_tests&#x27;: False, &#x27;test&#x27;: None, &#x27;folder&#x27;: &#x27;/home/harshil/web2py&#x27;, &#x27;config&#x27;: &#x27;&#x27;, &#x27;minthreads&#x27;: None, &#x27;shell&#x27;: None, &#x27;run&#x27;: &#x27;&#x27;, &#x27;log_filename&#x27;: &#x27;httpserver.log&#x27;, &#x27;profiler_dir&#x27;: None, &#x27;args&#x27;: [&#x27;&#x27;], &#x27;socket_timeout&#x27;: 5, &#x27;ssl_ca_certificate&#x27;: None, &#x27;scheduler&#x27;: None, &#x27;interfaces&#x27;: None, &#x27;ssl_private_key&#x27;: &#x27;&#x27;, &#x27;gae&#x27;: None, &#x27;password&#x27;: &#x27;&lt;ask&gt;&#x27;, &#x27;request_queue_size&#x27;: 5, &#x27;ssl_certificate&#x27;: &#x27;&#x27;, &#x27;cronjob&#x27;: False, &#x27;numthreads&#x27;: None, &#x27;quiet&#x27;: False, &#x27;import_models&#x27;: False, &#x27;timeout&#x27;: 10, &#x27;plain&#x27;: False, &#x27;nobanner&#x27;: False}&gt;</div></td></tr><tr><td style="font-weight:bold;vertical-align:top;">db_sessions</td><td style="vertical-align:top;">:</td><td><div>set([])</div></td></tr><tr><td style="font-weight:bold;vertical-align:top;">debugging</td><td style="vertical-align:top;">:</td><td><div>False</div></td></tr><tr><td style="font-weight:bold;vertical-align:top;">gluon_parent</td><td style="vertical-align:top;">:</td><td><div>/home/harshil/web2py</div></td></tr><tr><td style="font-weight:bold;vertical-align:top;">is_jython</td><td style="vertical-align:top;">:</td><td><div>False</div></td></tr><tr><td style="font-weight:bold;vertical-align:top;">is_pypy</td><td style="vertical-align:top;">:</td><td><div>False</div></td></tr><tr><td style="font-weight:bold;vertical-align:top;">is_source</td><td style="vertical-align:top;">:</td><td><div>True</div></td></tr><tr><td style="font-weight:bold;vertical-align:top;">local_hosts</td><td style="vertical-align:top;">:</td><td><div><table><tr><td><div>::1</div></td></tr><tr><td><div>127.0.1.1</div></td></tr><tr><td><div>harshil-Lenovo-Z50-70</div></td></tr><tr><td><div>::ffff:127.0.0.1</div></td></tr><tr><td><div>127.0.0.1</div></td></tr></table></div></td></tr><tr><td style="font-weight:bold;vertical-align:top;">web2py_version</td><td style="vertical-align:top;">:</td><td><div>2.9.11-stable+timestamp.2014.09.15.23.35.11</div></td></tr></table></div></td></tr><tr><td style="font-weight:bold;vertical-align:top;">is_https</td><td style="vertical-align:top;">:</td><td><div>False</div></td></tr><tr><td style="font-weight:bold;vertical-align:top;">is_local</td><td style="vertical-align:top;">:</td><td><div>True</div></td></tr><tr><td style="font-weight:bold;vertical-align:top;">is_restful</td><td style="vertical-align:top;">:</td><td><div>False</div></td></tr><tr><td style="font-weight:bold;vertical-align:top;">is_sheduler</td><td style="vertical-align:top;">:</td><td><div>None</div></td></tr><tr><td style="font-weight:bold;vertical-align:top;">is_shell</td><td style="vertical-align:top;">:</td><td><div>None</div></td></tr><tr><td style="font-weight:bold;vertical-align:top;">now</td><td style="vertical-align:top;">:</td><td><div>datetime.datetime(2015, 4, 11, 15, 4, 42, 877306)</div></td></tr><tr><td style="font-weight:bold;vertical-align:top;">raw_args</td><td style="vertical-align:top;">:</td><td><div>1</div></td></tr><tr><td style="font-weight:bold;vertical-align:top;">raw_extension</td><td style="vertical-align:top;">:</td><td><div>None</div></td></tr><tr><td style="font-weight:bold;vertical-align:top;">url</td><td style="vertical-align:top;">:</td><td><div>/SocialNetwork/default/home/1</div></td></tr><tr><td style="font-weight:bold;vertical-align:top;">utcnow</td><td style="vertical-align:top;">:</td><td><div>datetime.datetime(2015, 4, 11, 9, 34, 42, 877327)</div></td></tr><tr><td style="font-weight:bold;vertical-align:top;">uuid</td><td style="vertical-align:top;">:</td><td><div>SocialNetwork/127.0.0.1.2015-04-11.15-04-42.b25be9c8-4fa9-4cfc-9f31-082bf5075c14</div></td></tr><tr><td style="font-weight:bold;vertical-align:top;">wsgi</td><td style="vertical-align:top;">:</td><td><div>&lt;gluon.main.LazyWSGI object at 0x7f6c2c1fb8d0&gt;</div></td></tr></table></div>'
tRp64
sS'frames'
p65
(lp66
(dp67
S'file'
p68
S'/home/harshil/web2py/gluon/restricted.py'
p69
sS'dump'
p70
(dp71
S'environment'
p72
S"{'A': <class 'gluon.html.A'>, 'ANY_OF': <class 'gluon.validators.ANY_OF'>, 'ASSIGNJS': <function ASSIGNJS>, 'Auth': <class 'gluon.tools.Auth'>, 'B': <class 'gluon.html.B'>, 'BEAUTIFY': <class 'gluon.html.BEAUTIFY'>, 'BODY': <class 'gluon.html.BODY'>, 'BR': <class 'gluon.html.BR'>, 'BUTTON': <class 'gluon.html.BUTTON'>, 'CAT': <class 'gluon.html.CAT'>, ...}"
p73
sS'ccode'
p74
S'<code object <module> at 0x7f6c2c09dbb0, file "/...s/SocialNetwork/controllers/default.py", line 12>'
p75
ssS'lnum'
p76
I224
sS'lines'
p77
(dp78
I224
S'        exec ccode in environment'
p79
sI225
S'    except HTTP:'
p80
sI226
S'        raise'
p81
sI227
S'    except RestrictedError:'
p82
sI228
S'        # do not encapsulate (obfuscate) the original RestrictedError'
p83
sI219
S'    try:'
p84
sI220
S'        if isinstance(code, types.CodeType):'
p85
sI221
S'            ccode = code'
p86
sI222
S'        else:'
p87
sI223
S'            ccode = compile2(code, layer)'
p88
ssS'call'
p89
S"(code='# -*- coding: utf-8 -*-\\n# this file is released ...se,rules)\\n\\nresponse._vars=response._caller(home)\\n', environment={'A': <class 'gluon.html.A'>, 'ANY_OF': <class 'gluon.validators.ANY_OF'>, 'ASSIGNJS': <function ASSIGNJS>, 'Auth': <class 'gluon.tools.Auth'>, 'B': <class 'gluon.html.B'>, 'BEAUTIFY': <class 'gluon.html.BEAUTIFY'>, 'BODY': <class 'gluon.html.BODY'>, 'BR': <class 'gluon.html.BR'>, 'BUTTON': <class 'gluon.html.BUTTON'>, 'CAT': <class 'gluon.html.CAT'>, ...}, layer='/home/harshil/web2py/applications/SocialNetwork/controllers/default.py')"
p90
sS'func'
p91
S'restricted'
p92
sa(dp93
g68
S'/home/harshil/web2py/applications/SocialNetwork/controllers/default.py'
p94
sg70
(dp95
sg76
I263
sg77
(dp96
I256
S'    """'
p97
sI257
S'    from gluon.contrib.hypermedia import Collection'
p98
sI258
S'    rules = {'
p99
sI259
S"        '<tablename>': {'GET':{},'POST':{},'PUT':{},'DELETE':{}},"
p100
sI260
S'        }'
p101
sI261
S'    return Collection(db).process(request,response,rules)'
p102
sI252
S'def api():'
p103
sI253
S'    """'
p104
sI254
S'    this is example of API with access control'
p105
sI255
S'    WEB2PY provides Hypermedia API (Collection+JSON) Experimental'
p106
ssg89
S'()'
p107
sg91
S'<module>'
p108
sa(dp109
g68
S'/home/harshil/web2py/gluon/globals.py'
p110
sg70
(dp111
S'self'
p112
S'undefined'
p113
sS'f'
S'<function home>'
p114
ssg76
I392
sg77
(dp115
I387
S"        self.flash = ''            # used by the default view layout"
p116
sI388
S'        self.meta = Storage()      # used by web2py_ajax.html'
p117
sI389
S'        self.menu = []             # used by the default view layout'
p118
sI390
S'        self.files = []            # used by web2py_ajax.html'
p119
sI391
S'        self._vars = None'
p120
sI392
S'        self._caller = lambda f: f()'
p121
sI393
S'        self._view_environment = None'
p122
sI394
S'        self._custom_commit = None'
p123
sI395
S'        self._custom_rollback = None'
p124
sI396
S"        self.generic_patterns = ['*']"
p125
ssg89
S'(f=<function home>)'
p126
sg91
S'<lambda>'
p127
sa(dp128
g68
S'/home/harshil/web2py/gluon/tools.py'
p129
sg70
(dp130
S'action'
p131
S'<function home>'
p132
sS'a'
S'()'
p133
sS'b'
g19
ssg76
I3439
sg77
(dp134
I3434
S'                    flag = condition'
p135
sI3435
S'                if not flag:'
p136
sI3436
S'                    current.session.flash = self.messages.access_denied'
p137
sI3437
S'                    return call_or_redirect('
p138
sI3438
S'                        self.settings.on_failed_authorization)'
p139
sI3439
S'                return action(*a, **b)'
p140
sI3440
S'            f.__doc__ = action.__doc__'
p141
sI3441
S'            f.__name__ = action.__name__'
p142
sI3442
S'            f.__dict__.update(action.__dict__)'
p143
sI3443
S'            return f'
p144
ssg89
S'(*a=(), **b={})'
p145
sg91
S'f'
sa(dp146
g68
S'/home/harshil/web2py/applications/SocialNetwork/controllers/default.py'
p147
sg70
(dp148
S'db.profilepic.insert'
p149
S'<bound method Table.insert of <Table profilepic (id,person_id,image)>>'
p150
sS'db.profilepic'
p151
S'<Table profilepic (id,person_id,image)>'
p152
sS'image'
p153
g113
sS'logid'
p154
S'1'
sS'person_id'
p155
g113
sS'stream2'
p156
S"<open file '/home/harshil/web2py/applications/So...363034313132353334325f6e2e6a7067.jpg', mode 'rb'>"
p157
sS'global db'
p158
S'<DAL uri="sqlite://storage.sqlite">'
p159
ssg76
I152
sg77
(dp160
I147
S'            )'
p161
sI148
S"    if picform.process(formname='picform').accepted:"
p162
sI149
S'        db(db.profilepic.id==logid).delete()'
p163
sI150
S"        stream2 = open(request.folder+'uploads/'+picform.vars.ProfilePic, 'rb')"
p164
sI151
S''
sI152
S'        db.profilepic.insert(person_id=logid, image=stream2)'
p165
sI153
S''
sI154
S'    return dict(picform=picform,search=search,logid=logid,people=people,flass=flass,l=l,m=m,data=A(auth.user.first_name, _href="default/home" ), name=k , flist=flist , frlist=frlist,form = form, post=post)'
p166
sI155
S''
sI156
S'@auth.requires_login()'
p167
ssg89
S'()'
p168
sg91
S'home'
p169
sa(dp170
g68
S'/home/harshil/web2py/gluon/dal.py'
p171
sg70
(dp172
S'fields'
p173
S"{'image': <open file '/home/harshil/web2py/applications/So...363034313132353334325f6e2e6a7067.jpg', mode 'rb'>, 'person_id': 1}"
p174
sS'self'
p175
S'<Table profilepic (id,person_id,image)>'
p176
sS'self._attempt_upload'
p177
S'<bound method Table._attempt_upload of <Table profilepic (id,person_id,image)>>'
p178
ssg76
I9315
sg77
(dp179
I9312
S''
sI9313
S'    def insert(self, **fields):'
p180
sI9314
S'        fields = self._defaults(fields)'
p181
sI9315
S'        self._attempt_upload(fields)'
p182
sI9316
S'        if any(f(fields) for f in self._before_insert): return 0'
p183
sI9317
S'        ret =  self._db._adapter.insert(self, self._listify(fields))'
p184
sI9318
S'        if ret and self._after_insert:'
p185
sI9319
S'            fields = Row(fields)'
p186
sI9310
S'        fields = self._defaults(fields)'
p187
sI9311
S'        return self._db._adapter._insert(self, self._listify(fields))'
p188
ssg89
S"(self=<Table profilepic (id,person_id,image)>, **fields={'image': <open file '/home/harshil/web2py/applications/So...363034313132353334325f6e2e6a7067.jpg', mode 'rb'>, 'person_id': 1})"
p189
sg91
S'insert'
p190
sa(dp191
g68
S'/home/harshil/web2py/gluon/dal.py'
p192
sg70
(dp193
S'new_name'
p194
g113
sS'value'
p195
S"<open file '/home/harshil/web2py/applications/So...363034313132353334325f6e2e6a7067.jpg', mode 'rb'>"
p196
sS'filename'
p197
g113
sS'value.name'
p198
S"'/home/harshil/web2py/applications/SocialNetwork/...8333534343534363034313132353334325f6e2e6a7067.jpg'"
p199
sS'field'
p200
S'<gluon.dal.Field object>'
p201
sS'field.store'
p202
S'<bound method Field.store of <gluon.dal.Field object>>'
p203
ssg76
I9295
sg77
(dp204
I9290
S"                            stream = StringIO.StringIO(value['data'])"
p205
sI9291
S"                            new_name = field.store(stream, filename=value['filename'])"
p206
sI9292
S'                        else:'
p207
sI9293
S'                            new_name = None'
p208
sI9294
S"                    elif hasattr(value, 'read') and hasattr(value, 'name'):"
p209
sI9295
S'                        new_name = field.store(value, filename=value.name)'
p210
sI9296
S'                    else:'
p211
sI9297
S'                        raise RuntimeError("Unable to handle upload")'
p212
sI9298
S'                    fields[field.name] = new_name'
p213
sI9299
S''
ssg89
S"(self=<Table profilepic (id,person_id,image)>, fields={'image': <open file '/home/harshil/web2py/applications/So...363034313132353334325f6e2e6a7067.jpg', mode 'rb'>, 'person_id': 1})"
p214
sg91
S'_attempt_upload'
p215
sa(dp216
g68
S'/home/harshil/web2py/gluon/dal.py'
p217
sg70
(dp218
S'builtinopen'
p219
S'<built-in function open>'
p220
sS'dest_file'
p221
g113
sS'pathfilename'
p222
S"'/home/harshil/web2py/applications/SocialNetwork/...53333333433323566366532653661373036372e6a7067.jpg'"
p223
ssg76
I10216
sg77
(dp224
I10211
S'                os.makedirs(path)'
p225
sI10212
S'            pathfilename = pjoin(path, newfilename)'
p226
sI10213
S'            if self.uploadfs:'
p227
sI10214
S"                dest_file = self.uploadfs.open(newfilename, 'wb')"
p228
sI10215
S'            else:'
p229
sI10216
S"                dest_file = open(pathfilename, 'wb')"
p230
sI10217
S'            try:'
p231
sI10218
S'                shutil.copyfileobj(file, dest_file)'
p232
sI10219
S'            except IOError:'
p233
sI10220
S'                raise IOError('
p234
ssg89
S"(self=<gluon.dal.Field object>, file=<open file '/home/harshil/web2py/applications/So...363034313132353334325f6e2e6a7067.jpg', mode 'rb'>, filename='no_table.ProfilePic.83061a5be184b4ce.31313030393...8333534343534363034313132353334325f6e2e6a7067.jpg', path='/home/harshil/web2py/applications/SocialNetwork/databases/../uploads')"
p235
sg91
S'store'
p236
sasS'pyver'
p237
S'Python 2.7.6: /usr/bin/python (prefix: /usr)'
p238
sS'session'
p239
g63
(S's\x0c\n\x00\x00<div><table><tr><td style="font-weight:bold;vertical-align:top;">auth</td><td style="vertical-align:top;">:</td><td><div><table><tr><td style="font-weight:bold;vertical-align:top;">expiration</td><td style="vertical-align:top;">:</td><td><div>3600</div></td></tr><tr><td style="font-weight:bold;vertical-align:top;">hmac_key</td><td style="vertical-align:top;">:</td><td><div>daff863d-6959-420f-8eb8-6f6d14f8718e</div></td></tr><tr><td style="font-weight:bold;vertical-align:top;">last_visit</td><td style="vertical-align:top;">:</td><td><div>datetime.datetime(2015, 4, 11, 15, 1, 41, 103270)</div></td></tr><tr><td style="font-weight:bold;vertical-align:top;">remember_me</td><td style="vertical-align:top;">:</td><td><div>False</div></td></tr><tr><td style="font-weight:bold;vertical-align:top;">user</td><td style="vertical-align:top;">:</td><td><div><table><tr><td style="font-weight:bold;vertical-align:top;">email</td><td style="vertical-align:top;">:</td><td><div>harshil158@gmail.com</div></td></tr><tr><td style="font-weight:bold;vertical-align:top;">first_name</td><td style="vertical-align:top;">:</td><td><div>Harshil</div></td></tr><tr><td style="font-weight:bold;vertical-align:top;">id</td><td style="vertical-align:top;">:</td><td><div>1L</div></td></tr><tr><td style="font-weight:bold;vertical-align:top;">last_name</td><td style="vertical-align:top;">:</td><td><div>Goel</div></td></tr><tr><td style="font-weight:bold;vertical-align:top;">registration_id</td><td style="vertical-align:top;">:</td><td><div></div></td></tr><tr><td style="font-weight:bold;vertical-align:top;">registration_key</td><td style="vertical-align:top;">:</td><td><div></div></td></tr><tr><td style="font-weight:bold;vertical-align:top;">reset_password_key</td><td style="vertical-align:top;">:</td><td><div></div></td></tr></table></div></td></tr><tr><td style="font-weight:bold;vertical-align:top;">user_groups</td><td style="vertical-align:top;">:</td><td><div><table><tr><td style="font-weight:bold;vertical-align:top;">1</td><td style="vertical-align:top;">:</td><td><div>user_1</div></td></tr></table></div></td></tr></table></div></td></tr><tr><td style="font-weight:bold;vertical-align:top;">flash</td><td style="vertical-align:top;">:</td><td><div>None</div></td></tr><tr><td style="font-weight:bold;vertical-align:top;">last_orderby</td><td style="vertical-align:top;">:</td><td><div>None</div></td></tr><tr><td style="font-weight:bold;vertical-align:top;">last_query</td><td style="vertical-align:top;">:</td><td><div>db.profilepic.id&gt;0</div></td></tr></table></div>'
tRp240
sS'etype'
p241
S"<type 'exceptions.IOError'>"
p242
sS'date'
p243
S'Sat Apr 11 15:04:42 2015'
p244
sS'response'
p245
g63
(S's\x023\x00\x00<div><table><tr><td style="font-weight:bold;vertical-align:top;">body</td><td style="vertical-align:top;">:</td><td><div>&lt;cStringIO.StringO object at 0x7f6c2c0c3f10&gt;</div></td></tr><tr><td style="font-weight:bold;vertical-align:top;">cookies</td><td style="vertical-align:top;">:</td><td><div><table><tr><td style="font-weight:bold;vertical-align:top;">session_id_socialnetwork</td><td style="vertical-align:top;">:</td><td><div>127.0.0.1-986d7e9c-0c75-4751-85fa-21c89cd42f96<table><tr><td style="font-weight:bold;vertical-align:top;">comment</td><td style="vertical-align:top;">:</td><td><div></div></td></tr><tr><td style="font-weight:bold;vertical-align:top;">domain</td><td style="vertical-align:top;">:</td><td><div></div></td></tr><tr><td style="font-weight:bold;vertical-align:top;">expires</td><td style="vertical-align:top;">:</td><td><div></div></td></tr><tr><td style="font-weight:bold;vertical-align:top;">httponly</td><td style="vertical-align:top;">:</td><td><div></div></td></tr><tr><td style="font-weight:bold;vertical-align:top;">max-age</td><td style="vertical-align:top;">:</td><td><div></div></td></tr><tr><td style="font-weight:bold;vertical-align:top;">path</td><td style="vertical-align:top;">:</td><td><div>/</div></td></tr><tr><td style="font-weight:bold;vertical-align:top;">secure</td><td style="vertical-align:top;">:</td><td><div></div></td></tr><tr><td style="font-weight:bold;vertical-align:top;">version</td><td style="vertical-align:top;">:</td><td><div></div></td></tr></table></div></td></tr></table></div></td></tr><tr><td style="font-weight:bold;vertical-align:top;">delimiters</td><td style="vertical-align:top;">:</td><td><div><table><tr><td><div>{{</div></td></tr><tr><td><div>}}</div></td></tr></table></div></td></tr><tr><td style="font-weight:bold;vertical-align:top;">files</td><td style="vertical-align:top;">:</td><td><div><table></table></div></td></tr><tr><td style="font-weight:bold;vertical-align:top;">flash</td><td style="vertical-align:top;">:</td><td><div>Success!</div></td></tr><tr><td style="font-weight:bold;vertical-align:top;">form_label_separator</td><td style="vertical-align:top;">:</td><td><div>: </div></td></tr><tr><td style="font-weight:bold;vertical-align:top;">formstyle</td><td style="vertical-align:top;">:</td><td><div>table3cols</div></td></tr><tr><td style="font-weight:bold;vertical-align:top;">generic_patterns</td><td style="vertical-align:top;">:</td><td><div><table><tr><td><div>*</div></td></tr></table></div></td></tr><tr><td style="font-weight:bold;vertical-align:top;">google_analytics_id</td><td style="vertical-align:top;">:</td><td><div>None</div></td></tr><tr><td style="font-weight:bold;vertical-align:top;">headers</td><td style="vertical-align:top;">:</td><td><div><table><tr><td style="font-weight:bold;vertical-align:top;">X-Powered-By</td><td style="vertical-align:top;">:</td><td><div>web2py</div></td></tr></table></div></td></tr><tr><td style="font-weight:bold;vertical-align:top;">logo</td><td style="vertical-align:top;">:</td><td><div><a class="brand" href="http://www.web2py.com/"><b>web<span>2</span>py</b>&trade;&nbsp;</a></div></td></tr><tr><td style="font-weight:bold;vertical-align:top;">menu</td><td style="vertical-align:top;">:</td><td><div><table><tr><td><div><table><tr><td><div>Home</div></td></tr><tr><td><div>False</div></td></tr><tr><td><div>/SocialNetwork/default/index</div></td></tr><tr><td><div><table></table></div></td></tr></table></div></td></tr><tr><td><div><table><tr><td><div><span class="highlighted">web2py</span></div></td></tr><tr><td><div>False</div></td></tr><tr><td><div>http://web2py.com</div></td></tr><tr><td><div><table><tr><td><div><table><tr><td><div>My Sites</div></td></tr><tr><td><div>False</div></td></tr><tr><td><div>/admin/default/site</div></td></tr></table></div></td></tr><tr><td><div><table><tr><td><div>This App</div></td></tr><tr><td><div>False</div></td></tr><tr><td><div>/admin/default/design/SocialNetwork</div></td></tr><tr><td><div>[(&lt;lazyT &#x27;Controller&#x27;&gt;, False, &#x27;/admin/default/edit/SocialNetwork/controllers/default.py&#x27;), (&lt;lazyT &#x27;View&#x27;&gt;, False, &#x27;/admin/default/edit/SocialNetwork/views/default/home.html&#x27;), (&lt;lazyT &#x27;Layout&#x27;&gt;, False, &#x27;/admin/default/edit/SocialNetwork/views/layout.html&#x27;), (&lt;lazyT &#x27;Stylesheet&#x27;&gt;, False, &#x27;/admin/default/edit/SocialNetwork/static/css/web2py.css&#x27;), (&lt;lazyT &#x27;DB Model&#x27;&gt;, False, &#x27;/admin/default/edit/SocialNetwork/models/db.py&#x27;), (&lt;lazyT &#x27;Menu Model&#x27;&gt;, False, &#x27;/admin/default/edit/SocialNetwork/models/menu.py&#x27;), (&lt;lazyT &#x27;Database&#x27;&gt;, False, &#x27;/SocialNetwork/appadmin/index&#x27;), (&lt;lazyT &#x27;Errors&#x27;&gt;, False, &#x27;/admin/default/errors/SocialNetwork&#x27;), (&lt;lazyT &#x27;About&#x27;&gt;, False, &#x27;/admin/default/about/SocialNetwork&#x27;)]</div></td></tr></table></div></td></tr><tr><td><div><table><tr><td><div>web2py.com</div></td></tr><tr><td><div>False</div></td></tr><tr><td><div>http://www.web2py.com</div></td></tr><tr><td><div>[(&lt;lazyT &#x27;Download&#x27;&gt;, False, &#x27;http://www.web2py.com/examples/default/download&#x27;), (&lt;lazyT &#x27;Support&#x27;&gt;, False, &#x27;http://www.web2py.com/examples/default/support&#x27;), (&lt;lazyT &#x27;Demo&#x27;&gt;, False, &#x27;http://web2py.com/demo_admin&#x27;), (&lt;lazyT &#x27;Quick Examples&#x27;&gt;, False, &#x27;http://web2py.com/examples/default/examples&#x27;), (&lt;lazyT &#x27;FAQ&#x27;&gt;, False, &#x27;http://web2py.com/AlterEgo&#x27;), (&lt;lazyT &#x27;Videos&#x27;&gt;, False, &#x27;http://www.web2py.com/examples/default/videos/&#x27;), (&lt;lazyT &#x27;Free Applications&#x27;&gt;, False, &#x27;http://web2py.com/appliances&#x27;), (&lt;lazyT &#x27;Plugins&#x27;&gt;, False, &#x27;http://web2py.com/plugins&#x27;), (&lt;lazyT &#x27;Layouts&#x27;&gt;, False, &#x27;http://web2py.com/layouts&#x27;), (&lt;lazyT &#x27;Recipes&#x27;&gt;, False, &#x27;http://web2pyslices.com/&#x27;), (&lt;lazyT &#x27;Semantic&#x27;&gt;, False, &#x27;http://web2py.com/semantic&#x27;)]</div></td></tr></table></div></td></tr><tr><td><div><table><tr><td><div>Documentation</div></td></tr><tr><td><div>False</div></td></tr><tr><td><div>http://www.web2py.com/book</div></td></tr><tr><td><div>[(&lt;lazyT &#x27;Preface&#x27;&gt;, False, &#x27;http://www.web2py.com/book/default/chapter/00&#x27;), (&lt;lazyT &#x27;Introduction&#x27;&gt;, False, &#x27;http://www.web2py.com/book/default/chapter/01&#x27;), (&lt;lazyT &#x27;Python&#x27;&gt;, False, &#x27;http://www.web2py.com/book/default/chapter/02&#x27;), (&lt;lazyT &#x27;Overview&#x27;&gt;, False, &#x27;http://www.web2py.com/book/default/chapter/03&#x27;), (&lt;lazyT &#x27;The Core&#x27;&gt;, False, &#x27;http://www.web2py.com/book/default/chapter/04&#x27;), (&lt;lazyT &#x27;The Views&#x27;&gt;, False, &#x27;http://www.web2py.com/book/default/chapter/05&#x27;), (&lt;lazyT &#x27;Database&#x27;&gt;, False, &#x27;http://www.web2py.com/book/default/chapter/06&#x27;), (&lt;lazyT &#x27;Forms and Validators&#x27;&gt;, False, &#x27;http://www.web2py.com/book/default/chapter/07&#x27;), (&lt;lazyT &#x27;Email and SMS&#x27;&gt;, False, &#x27;http://www.web2py.com/book/default/chapter/08&#x27;), (&lt;lazyT &#x27;Access Control&#x27;&gt;, False, &#x27;http://www.web2py.com/book/default/chapter/09&#x27;), (&lt;lazyT &#x27;Services&#x27;&gt;, False, &#x27;http://www.web2py.com/book/default/chapter/10&#x27;), (&lt;lazyT &#x27;Ajax Recipes&#x27;&gt;, False, &#x27;http://www.web2py.com/book/default/chapter/11&#x27;), (&lt;lazyT &#x27;Components and Plugins&#x27;&gt;, False, &#x27;http://www.web2py.com/book/default/chapter/12&#x27;), (&lt;lazyT &#x27;Deployment Recipes&#x27;&gt;, False, &#x27;http://www.web2py.com/book/default/chapter/13&#x27;), (&lt;lazyT &#x27;Other Recipes&#x27;&gt;, False, &#x27;http://www.web2py.com/book/default/chapter/14&#x27;), (&lt;lazyT &#x27;Buy this book&#x27;&gt;, False, &#x27;http://stores.lulu.com/web2py&#x27;)]</div></td></tr></table></div></td></tr><tr><td><div><table><tr><td><div>Community</div></td></tr><tr><td><div>False</div></td></tr><tr><td><div>None</div></td></tr><tr><td><div>[(&lt;lazyT &#x27;Groups&#x27;&gt;, False, &#x27;http://www.web2py.com/examples/default/usergroups&#x27;), (&lt;lazyT &#x27;Twitter&#x27;&gt;, False, &#x27;http://twitter.com/web2py&#x27;), (&lt;lazyT &#x27;Live Chat&#x27;&gt;, False, &#x27;http://webchat.freenode.net/?channels=web2py&#x27;)]</div></td></tr></table></div></td></tr><tr><td><div><table><tr><td><div>Plugins</div></td></tr><tr><td><div>False</div></td></tr><tr><td><div>None</div></td></tr><tr><td><div>[(&#x27;plugin_wiki&#x27;, False, &#x27;http://web2py.com/examples/default/download&#x27;), (&lt;lazyT &#x27;Other Plugins&#x27;&gt;, False, &#x27;http://web2py.com/plugins&#x27;), (&lt;lazyT &#x27;Layout Plugins&#x27;&gt;, False, &#x27;http://web2py.com/layouts&#x27;)]</div></td></tr></table></div></td></tr></table></div></td></tr></table></div></td></tr></table></div></td></tr><tr><td style="font-weight:bold;vertical-align:top;">meta</td><td style="vertical-align:top;">:</td><td><div><table><tr><td style="font-weight:bold;vertical-align:top;">author</td><td style="vertical-align:top;">:</td><td><div>Your Name &lt;you@example.com&gt;</div></td></tr><tr><td style="font-weight:bold;vertical-align:top;">generator</td><td style="vertical-align:top;">:</td><td><div>Web2py Web Framework</div></td></tr><tr><td style="font-weight:bold;vertical-align:top;">keywords</td><td style="vertical-align:top;">:</td><td><div>web2py, python, framework</div></td></tr></table></div></td></tr><tr><td style="font-weight:bold;vertical-align:top;">models_to_run</td><td style="vertical-align:top;">:</td><td><div><table><tr><td><div>^\\w+\\.py$</div></td></tr><tr><td><div>^default/\\w+\\.py$</div></td></tr><tr><td><div>^default/home/\\w+\\.py$</div></td></tr></table></div></td></tr><tr><td style="font-weight:bold;vertical-align:top;">postprocessing</td><td style="vertical-align:top;">:</td><td><div><table></table></div></td></tr><tr><td style="font-weight:bold;vertical-align:top;">session_client</td><td style="vertical-align:top;">:</td><td><div>127.0.0.1</div></td></tr><tr><td style="font-weight:bold;vertical-align:top;">session_cookie_compression_level</td><td style="vertical-align:top;">:</td><td><div>None</div></td></tr><tr><td style="font-weight:bold;vertical-align:top;">session_cookie_expires</td><td style="vertical-align:top;">:</td><td><div>None</div></td></tr><tr><td style="font-weight:bold;vertical-align:top;">session_cookie_key</td><td style="vertical-align:top;">:</td><td><div>None</div></td></tr><tr><td style="font-weight:bold;vertical-align:top;">session_data_name</td><td style="vertical-align:top;">:</td><td><div>session_data_socialnetwork</div></td></tr><tr><td style="font-weight:bold;vertical-align:top;">session_file</td><td style="vertical-align:top;">:</td><td><div>&lt;open file &#x27;/home/harshil/web2py/applications/SocialNetwork/sessions/166/026/127.0.0.1-986d7e9c-0c75-4751-85fa-21c89cd42f96&#x27;, mode &#x27;rb+&#x27; at 0x7f6c2c1f6150&gt;</div></td></tr><tr><td style="font-weight:bold;vertical-align:top;">session_filename</td><td style="vertical-align:top;">:</td><td><div>/home/harshil/web2py/applications/SocialNetwork/sessions/127.0.0.1-986d7e9c-0c75-4751-85fa-21c89cd42f96</div></td></tr><tr><td style="font-weight:bold;vertical-align:top;">session_hash</td><td style="vertical-align:top;">:</td><td><div>570e7abdd6c214b6bff8a4771d1e8d98</div></td></tr><tr><td style="font-weight:bold;vertical-align:top;">session_id</td><td style="vertical-align:top;">:</td><td><div>127.0.0.1-986d7e9c-0c75-4751-85fa-21c89cd42f96</div></td></tr><tr><td style="font-weight:bold;vertical-align:top;">session_id_name</td><td style="vertical-align:top;">:</td><td><div>session_id_socialnetwork</div></td></tr><tr><td style="font-weight:bold;vertical-align:top;">session_locked</td><td style="vertical-align:top;">:</td><td><div>True</div></td></tr><tr><td style="font-weight:bold;vertical-align:top;">session_masterapp</td><td style="vertical-align:top;">:</td><td><div>SocialNetwork</div></td></tr><tr><td style="font-weight:bold;vertical-align:top;">session_new</td><td style="vertical-align:top;">:</td><td><div>False</div></td></tr><tr><td style="font-weight:bold;vertical-align:top;">session_storage_type</td><td style="vertical-align:top;">:</td><td><div>file</div></td></tr><tr><td style="font-weight:bold;vertical-align:top;">status</td><td style="vertical-align:top;">:</td><td><div>200</div></td></tr><tr><td style="font-weight:bold;vertical-align:top;">subtitle</td><td style="vertical-align:top;">:</td><td><div></div></td></tr><tr><td style="font-weight:bold;vertical-align:top;">title</td><td style="vertical-align:top;">:</td><td><div>Socialnetwork</div></td></tr><tr><td style="font-weight:bold;vertical-align:top;">view</td><td style="vertical-align:top;">:</td><td><div>default/home.html</div></td></tr></table></div>'
tRp246
sS'locals'
p247
(dp248
S'extension'
p249
S"'jpg'"
p250
sS'self'
p251
S'<gluon.dal.Field object>'
p252
sS'm'
S'<_sre.SRE_Match object>'
p253
sS'newfilename'
p254
S"'profilepic.image.8284889d364aca8f.6e6f5f7461626c...53333333433323566366532653661373036372e6a7067.jpg'"
p255
sS'encoded_filename'
p256
S"'6e6f5f7461626c652e50726f66696c655069632e38333036...233353333333433323566366532653661373036372e6a7067'"
p257
sg36
S"'no_table.ProfilePic.83061a5be184b4ce.31313030393...8333534343534363034313132353334325f6e2e6a7067.jpg'"
p258
sS'self_uploadfield'
p259
S'True'
p260
sg68
S"<open file '/home/harshil/web2py/applications/So...363034313132353334325f6e2e6a7067.jpg', mode 'rb'>"
p261
sS'uuid_key'
p262
S"'8284889d364aca8f'"
p263
sS'path'
p264
S"'/home/harshil/web2py/applications/SocialNetwork/databases/../uploads'"
p265
sS'pathfilename'
p266
S"'/home/harshil/web2py/applications/SocialNetwork/...53333333433323566366532653661373036372e6a7067.jpg'"
p267
sssS'traceback'
p268
S'Traceback (most recent call last):\n  File "/home/harshil/web2py/gluon/restricted.py", line 224, in restricted\n    exec ccode in environment\n  File "/home/harshil/web2py/applications/SocialNetwork/controllers/default.py", line 263, in <module>\n  File "/home/harshil/web2py/gluon/globals.py", line 392, in <lambda>\n    self._caller = lambda f: f()\n  File "/home/harshil/web2py/gluon/tools.py", line 3439, in f\n    return action(*a, **b)\n  File "/home/harshil/web2py/applications/SocialNetwork/controllers/default.py", line 152, in home\n    db.profilepic.insert(person_id=logid, image=stream2)\n  File "/home/harshil/web2py/gluon/dal.py", line 9315, in insert\n    self._attempt_upload(fields)\n  File "/home/harshil/web2py/gluon/dal.py", line 9295, in _attempt_upload\n    new_name = field.store(value, filename=value.name)\n  File "/home/harshil/web2py/gluon/dal.py", line 10216, in store\n    dest_file = open(pathfilename, \'wb\')\nIOError: [Errno 36] File name too long: \'/home/harshil/web2py/applications/SocialNetwork/databases/../uploads/profilepic.image.8284889d364aca8f.6e6f5f7461626c652e50726f66696c655069632e383330363161356265313834623463652e333133313330333033393339333533313566333433313334333433353334333633343335333333383331333633313331356633333335333833333335333433343335333433363330333433313331333233353333333433323566366532653661373036372e6a7067.jpg\'\n'
p269
s.